target datalayout = "e-m:e-p270:32:32-p271:32:32-p272:64:64-i64:64-i128:128-f80:128-n8:16:32:64-S128"
target triple = "x86_64-pc-linux-gnu"

%struct.dlist_head = type { %struct.dlist_node }
%struct.dlist_node = type { ptr, ptr }
%struct.PGPROC = type { %struct.dlist_node, ptr, ptr, i32, %struct.Latch, i32, i32, i32, i32, %struct.anon, i32, i32, i32, i8, i8, i8, i8, %struct.proclist_node, %struct.proclist_node, ptr, ptr, i32, i32, %struct.pg_atomic_uint64, i32, i8, i64, i32, %struct.dlist_node, [16 x %struct.dlist_head], %struct.XidCacheStatus, %struct.XidCache, i8, %struct.pg_atomic_uint32, i32, i32, i8, %struct.pg_atomic_uint32, i32, i32, i64, i64, %struct.LWLock, ptr, ptr, i8, i32, ptr, %struct.dlist_head, %struct.dlist_node }
%struct.Latch = type { i32, i32, i8, i32 }
%struct.anon = type { i32, i32 }
%struct.proclist_node = type { i32, i32 }
%struct.pg_atomic_uint64 = type { i64 }
%struct.XidCacheStatus = type { i8, i8 }
%struct.XidCache = type { [64 x i32] }
%struct.pg_atomic_uint32 = type { i32 }
%struct.LWLock = type { i16, %struct.pg_atomic_uint32, %struct.proclist_head }
%struct.proclist_head = type { i32, i32 }
%struct.dlist_iter = type { ptr, ptr }

@visitedProcs = internal global ptr null, align 8
@nDeadlockDetails = internal global i32 0, align 4
@nVisitedProcs = internal global i32 0, align 4

; Function Attrs: nounwind uwtable
define internal zeroext i1 @FindLockCycleRecurse(ptr noundef %0, i32 noundef %1, ptr noundef %2, ptr noundef %3) #0 {
  %5 = alloca i1, align 1
  %6 = alloca ptr, align 8
  %7 = alloca i32, align 4
  %8 = alloca ptr, align 8
  %9 = alloca ptr, align 8
  %10 = alloca i32, align 4
  %11 = alloca %struct.dlist_iter, align 8
  %12 = alloca i32, align 4
  %13 = alloca i32, align 4
  %14 = alloca i32, align 4
  %15 = alloca ptr, align 8
  %16 = alloca i32, align 4
  %17 = alloca i32, align 4
  store ptr %0, ptr %6, align 8
  store i32 %1, ptr %7, align 4
  store ptr %2, ptr %8, align 8
  store ptr %3, ptr %9, align 8
  call void @llvm.lifetime.start.p0(i64 4, ptr %10) #8
  call void @llvm.lifetime.start.p0(i64 16, ptr %11) #8
  %18 = load ptr, ptr %6, align 8
  %19 = getelementptr inbounds nuw %struct.PGPROC, ptr %18, i32 0, i32 47
  %20 = load ptr, ptr %19, align 8
  %21 = icmp ne ptr %20, null
  br i1 %21, label %22, label %26

22:                                               ; preds = %4
  %23 = load ptr, ptr %6, align 8
  %24 = getelementptr inbounds nuw %struct.PGPROC, ptr %23, i32 0, i32 47
  %25 = load ptr, ptr %24, align 8
  store ptr %25, ptr %6, align 8
  br label %26

26:                                               ; preds = %22, %4
  store i32 0, ptr %10, align 4
  br label %27

27:                                               ; preds = %46, %26
  %28 = load i32, ptr %10, align 4
  %29 = load i32, ptr @nVisitedProcs, align 4
  %30 = icmp slt i32 %28, %29
  br i1 %30, label %31, label %49

31:                                               ; preds = %27
  %32 = load ptr, ptr @visitedProcs, align 8
  %33 = load i32, ptr %10, align 4
  %34 = sext i32 %33 to i64
  %35 = getelementptr inbounds ptr, ptr %32, i64 %34
  %36 = load ptr, ptr %35, align 8
  %37 = load ptr, ptr %6, align 8
  %38 = icmp eq ptr %36, %37
  br i1 %38, label %39, label %45

39:                                               ; preds = %31
  %40 = load i32, ptr %10, align 4
  %41 = icmp eq i32 %40, 0
  br i1 %41, label %42, label %44

42:                                               ; preds = %39
  %43 = load i32, ptr %7, align 4
  store i32 %43, ptr @nDeadlockDetails, align 4
  store i1 true, ptr %5, align 1
  store i32 1, ptr %12, align 4
  br label %150

44:                                               ; preds = %39
  store i1 false, ptr %5, align 1
  store i32 1, ptr %12, align 4
  br label %150

45:                                               ; preds = %31
  br label %46

46:                                               ; preds = %45
  %47 = load i32, ptr %10, align 4
  %48 = add i32 %47, 1
  store i32 %48, ptr %10, align 4
  br label %27, !llvm.loop !26

49:                                               ; preds = %27
  %50 = load ptr, ptr %6, align 8
  %51 = load ptr, ptr @visitedProcs, align 8
  %52 = load i32, ptr @nVisitedProcs, align 4
  %53 = add i32 %52, 1
  store i32 %53, ptr @nVisitedProcs, align 4
  %54 = sext i32 %52 to i64
  %55 = getelementptr inbounds ptr, ptr %51, i64 %54
  store ptr %50, ptr %55, align 8
  %56 = load ptr, ptr %6, align 8
  %57 = getelementptr inbounds nuw %struct.PGPROC, ptr %56, i32 0, i32 0
  %58 = getelementptr inbounds nuw %struct.dlist_node, ptr %57, i32 0, i32 1
  %59 = load ptr, ptr %58, align 8
  %60 = icmp ne ptr %59, null
  br i1 %60, label %61, label %74

61:                                               ; preds = %49
  %62 = load ptr, ptr %6, align 8
  %63 = getelementptr inbounds nuw %struct.PGPROC, ptr %62, i32 0, i32 19
  %64 = load ptr, ptr %63, align 8
  %65 = icmp ne ptr %64, null
  br i1 %65, label %66, label %74

66:                                               ; preds = %61
  %67 = load ptr, ptr %6, align 8
  %68 = load ptr, ptr %6, align 8
  %69 = load i32, ptr %7, align 4
  %70 = load ptr, ptr %8, align 8
  %71 = load ptr, ptr %9, align 8
  %72 = call zeroext i1 @FindLockCycleRecurseMember(ptr noundef %67, ptr noundef %68, i32 noundef %69, ptr noundef %70, ptr noundef %71)
  br i1 %72, label %73, label %74

73:                                               ; preds = %66
  store i1 true, ptr %5, align 1
  store i32 1, ptr %12, align 4
  br label %150

74:                                               ; preds = %66, %61, %49
  br label %75

75:                                               ; preds = %74
  br label %76

76:                                               ; preds = %75
  br label %77

77:                                               ; preds = %76
  store i32 1, ptr %13, align 4
  br label %78

78:                                               ; preds = %77
  br label %79

79:                                               ; preds = %78
  br label %80

80:                                               ; preds = %79
  store i32 1, ptr %14, align 4
  %81 = load ptr, ptr %6, align 8
  %82 = getelementptr inbounds nuw %struct.PGPROC, ptr %81, i32 0, i32 48
  %83 = getelementptr inbounds nuw %struct.dlist_head, ptr %82, i32 0, i32 0
  %84 = getelementptr inbounds nuw %struct.dlist_iter, ptr %11, i32 0, i32 1
  store ptr %83, ptr %84, align 8
  %85 = getelementptr inbounds nuw %struct.dlist_iter, ptr %11, i32 0, i32 1
  %86 = load ptr, ptr %85, align 8
  %87 = getelementptr inbounds nuw %struct.dlist_node, ptr %86, i32 0, i32 1
  %88 = load ptr, ptr %87, align 8
  %89 = icmp ne ptr %88, null
  br i1 %89, label %90, label %95

90:                                               ; preds = %80
  %91 = getelementptr inbounds nuw %struct.dlist_iter, ptr %11, i32 0, i32 1
  %92 = load ptr, ptr %91, align 8
  %93 = getelementptr inbounds nuw %struct.dlist_node, ptr %92, i32 0, i32 1
  %94 = load ptr, ptr %93, align 8
  br label %98

95:                                               ; preds = %80
  %96 = getelementptr inbounds nuw %struct.dlist_iter, ptr %11, i32 0, i32 1
  %97 = load ptr, ptr %96, align 8
  br label %98

98:                                               ; preds = %95, %90
  %99 = phi ptr [ %94, %90 ], [ %97, %95 ]
  %100 = getelementptr inbounds nuw %struct.dlist_iter, ptr %11, i32 0, i32 0
  store ptr %99, ptr %100, align 8
  br label %101

101:                                              ; preds = %143, %98
  %102 = getelementptr inbounds nuw %struct.dlist_iter, ptr %11, i32 0, i32 0
  %103 = load ptr, ptr %102, align 8
  %104 = getelementptr inbounds nuw %struct.dlist_iter, ptr %11, i32 0, i32 1
  %105 = load ptr, ptr %104, align 8
  %106 = icmp ne ptr %103, %105
  br i1 %106, label %107, label %149

107:                                              ; preds = %101
  call void @llvm.lifetime.start.p0(i64 8, ptr %15) #8
  br label %108

108:                                              ; preds = %107
  br label %109

109:                                              ; preds = %108
  br label %110

110:                                              ; preds = %109
  store i32 1, ptr %16, align 4
  br label %111

111:                                              ; preds = %110
  br label %112

112:                                              ; preds = %111
  br label %113

113:                                              ; preds = %112
  store i32 1, ptr %17, align 4
  %114 = getelementptr inbounds nuw %struct.dlist_iter, ptr %11, i32 0, i32 0
  %115 = load ptr, ptr %114, align 8
  %116 = getelementptr inbounds i8, ptr %115, i64 -816
  store ptr %116, ptr %15, align 8
  %117 = load ptr, ptr %15, align 8
  %118 = getelementptr inbounds nuw %struct.PGPROC, ptr %117, i32 0, i32 0
  %119 = getelementptr inbounds nuw %struct.dlist_node, ptr %118, i32 0, i32 1
  %120 = load ptr, ptr %119, align 8
  %121 = icmp ne ptr %120, null
  br i1 %121, label %122, label %139

122:                                              ; preds = %113
  %123 = load ptr, ptr %15, align 8
  %124 = getelementptr inbounds nuw %struct.PGPROC, ptr %123, i32 0, i32 19
  %125 = load ptr, ptr %124, align 8
  %126 = icmp ne ptr %125, null
  br i1 %126, label %127, label %139

127:                                              ; preds = %122
  %128 = load ptr, ptr %15, align 8
  %129 = load ptr, ptr %6, align 8
  %130 = icmp ne ptr %128, %129
  br i1 %130, label %131, label %139

131:                                              ; preds = %127
  %132 = load ptr, ptr %15, align 8
  %133 = load ptr, ptr %6, align 8
  %134 = load i32, ptr %7, align 4
  %135 = load ptr, ptr %8, align 8
  %136 = load ptr, ptr %9, align 8
  %137 = call zeroext i1 @FindLockCycleRecurseMember(ptr noundef %132, ptr noundef %133, i32 noundef %134, ptr noundef %135, ptr noundef %136)
  br i1 %137, label %138, label %139

138:                                              ; preds = %131
  store i1 true, ptr %5, align 1
  store i32 1, ptr %12, align 4
  br label %140

139:                                              ; preds = %131, %127, %122, %113
  store i32 0, ptr %12, align 4
  br label %140

140:                                              ; preds = %139, %138
  call void @llvm.lifetime.end.p0(i64 8, ptr %15) #8
  %141 = load i32, ptr %12, align 4
  switch i32 %141, label %150 [
    i32 0, label %142
  ]

142:                                              ; preds = %140
  br label %143

143:                                              ; preds = %142
  %144 = getelementptr inbounds nuw %struct.dlist_iter, ptr %11, i32 0, i32 0
  %145 = load ptr, ptr %144, align 8
  %146 = getelementptr inbounds nuw %struct.dlist_node, ptr %145, i32 0, i32 1
  %147 = load ptr, ptr %146, align 8
  %148 = getelementptr inbounds nuw %struct.dlist_iter, ptr %11, i32 0, i32 0
  store ptr %147, ptr %148, align 8
  br label %101, !llvm.loop !27

149:                                              ; preds = %101
  store i1 false, ptr %5, align 1
  store i32 1, ptr %12, align 4
  br label %150

150:                                              ; preds = %149, %140, %73, %44, %42
  call void @llvm.lifetime.end.p0(i64 16, ptr %11) #8
  call void @llvm.lifetime.end.p0(i64 4, ptr %10) #8
  %151 = load i1, ptr %5, align 1
  ret i1 %151
}