; Function Attrs: nounwind uwtable
define internal fastcc noundef zeroext i1 @FindLockCycleRecurse(ptr noundef %0, i32 noundef %1, ptr noundef writeonly captures(none) %2, ptr noundef nonnull captures(none) %3) unnamed_addr #0 {
  %5 = getelementptr inbounds nuw i8, ptr %0, i64 792
  %6 = load ptr, ptr %5, align 8
  %.not = icmp eq ptr %6, null
  %spec.select = select i1 %.not, ptr %0, ptr %6
  %7 = load i32, ptr @nVisitedProcs, align 4
  %8 = icmp sgt i32 %7, 0
  %.pre = load ptr, ptr @visitedProcs, align 8
  br i1 %8, label %.lr.ph, label %._crit_edge

.lr.ph:                                           ; preds = %4, %16
  %.03348 = phi i32 [ %17, %16 ], [ 0, %4 ]
  %9 = zext nneg i32 %.03348 to i64
  %10 = getelementptr inbounds nuw ptr, ptr %.pre, i64 %9
  %11 = load ptr, ptr %10, align 8
  %12 = icmp eq ptr %11, %spec.select
  br i1 %12, label %13, label %16

13:                                               ; preds = %.lr.ph
  %14 = icmp eq i32 %.03348, 0
  br i1 %14, label %15, label %.loopexit

15:                                               ; preds = %13
  store i32 %1, ptr @nDeadlockDetails, align 4
  br label %.loopexit

16:                                               ; preds = %.lr.ph
  %17 = add nuw nsw i32 %.03348, 1
  %exitcond.not = icmp eq i32 %17, %7
  br i1 %exitcond.not, label %._crit_edge, label %.lr.ph, !llvm.loop !22

._crit_edge:                                      ; preds = %16, %4
  %18 = add i32 %7, 1
  store i32 %18, ptr @nVisitedProcs, align 4
  %19 = sext i32 %7 to i64
  %20 = getelementptr inbounds ptr, ptr %.pre, i64 %19
  store ptr %spec.select, ptr %20, align 8
  %21 = getelementptr inbounds nuw i8, ptr %spec.select, i64 8
  %22 = load ptr, ptr %21, align 8
  %.not39 = icmp eq ptr %22, null
  br i1 %.not39, label %28, label %23

23:                                               ; preds = %._crit_edge
  %24 = getelementptr inbounds nuw i8, ptr %spec.select, i64 112
  %25 = load ptr, ptr %24, align 8
  %.not40 = icmp eq ptr %25, null
  br i1 %.not40, label %28, label %26

26:                                               ; preds = %23
  %27 = tail call fastcc zeroext i1 @FindLockCycleRecurseMember(ptr noundef nonnull %spec.select, ptr noundef nonnull %spec.select, i32 noundef %1, ptr noundef %2, ptr noundef %3)
  br i1 %27, label %.loopexit, label %28

28:                                               ; preds = %._crit_edge, %23, %26
  %29 = getelementptr inbounds nuw i8, ptr %spec.select, i64 800
  %30 = getelementptr inbounds nuw i8, ptr %spec.select, i64 808
  %31 = load ptr, ptr %30, align 8
  %.not41 = icmp eq ptr %31, null
  %.not424957 = icmp eq ptr %31, %29
  %.not4249 = select i1 %.not41, i1 true, i1 %.not424957
  br i1 %.not4249, label %.loopexit, label %.lr.ph52

.lr.ph52:                                         ; preds = %28, %.critedge
  %.sroa.0.050 = phi ptr [ %41, %.critedge ], [ %31, %28 ]
  %32 = getelementptr inbounds i8, ptr %.sroa.0.050, i64 -816
  %33 = getelementptr inbounds i8, ptr %.sroa.0.050, i64 -808
  %34 = load ptr, ptr %33, align 8
  %.not43 = icmp eq ptr %34, null
  br i1 %.not43, label %.critedge, label %35

35:                                               ; preds = %.lr.ph52
  %36 = getelementptr inbounds i8, ptr %.sroa.0.050, i64 -704
  %37 = load ptr, ptr %36, align 8
  %.not44 = icmp eq ptr %37, null
  %.not45 = icmp eq ptr %32, %spec.select
  %or.cond = select i1 %.not44, i1 true, i1 %.not45
  br i1 %or.cond, label %.critedge, label %38

38:                                               ; preds = %35
  %39 = tail call fastcc zeroext i1 @FindLockCycleRecurseMember(ptr noundef nonnull %32, ptr noundef %spec.select, i32 noundef %1, ptr noundef %2, ptr noundef %3)
  br i1 %39, label %.loopexit, label %.critedge

.critedge:                                        ; preds = %38, %35, %.lr.ph52
  %40 = getelementptr inbounds nuw i8, ptr %.sroa.0.050, i64 8
  %41 = load ptr, ptr %40, align 8
  %.not42 = icmp eq ptr %41, %29
  br i1 %.not42, label %.loopexit, label %.lr.ph52, !llvm.loop !23

.loopexit:                                        ; preds = %38, %.critedge, %28, %26, %13, %15
  %.0 = phi i1 [ true, %15 ], [ false, %13 ], [ true, %26 ], [ false, %28 ], [ true, %38 ], [ false, %.critedge ]
  ret i1 %.0
}